; Function Attrs: mustprogress nofree norecurse nosync nounwind memory(read, argmem: readwrite, inaccessiblemem: none) uwtable
define dso_local noundef zeroext i1 @_ZN4Json6Reader5matchEPKci(ptr nocapture noundef nonnull align 8 dereferenceable(269) %0, ptr nocapture noundef readonly %1, i32 noundef %2) local_unnamed_addr #10 align 2 {
  %4 = getelementptr inbounds i8, ptr %0, i64 200
  %5 = load ptr, ptr %4, align 8
  %6 = getelementptr inbounds i8, ptr %0, i64 208
  %7 = load ptr, ptr %6, align 8
  %8 = ptrtoint ptr %5 to i64
  %9 = ptrtoint ptr %7 to i64
  %10 = sub i64 %8, %9
  %11 = sext i32 %2 to i64
  %12 = icmp slt i64 %10, %11
  br i1 %12, label %.loopexit, label %.preheader

.preheader:                                       ; preds = %3, %14
  %indvars.iv = phi i64 [ %indvars.iv.next, %14 ], [ %11, %3 ]
  %13 = icmp eq i64 %indvars.iv, 0
  br i1 %13, label %19, label %14

14:                                               ; preds = %.preheader
  %indvars.iv.next = add nsw i64 %indvars.iv, -1
  %15 = getelementptr inbounds i8, ptr %7, i64 %indvars.iv.next
  %16 = load i8, ptr %15, align 1
  %17 = getelementptr inbounds i8, ptr %1, i64 %indvars.iv.next
  %18 = load i8, ptr %17, align 1
  %.not10 = icmp eq i8 %16, %18
  br i1 %.not10, label %.preheader, label %.loopexit, !llvm.loop !115

19:                                               ; preds = %.preheader
  %20 = getelementptr inbounds i8, ptr %7, i64 %11
  store ptr %20, ptr %6, align 8
  br label %.loopexit

.loopexit:                                        ; preds = %14, %3, %19
  %.08 = phi i1 [ true, %19 ], [ false, %3 ], [ false, %14 ]
  ret i1 %.08
}